; Function Attrs: nounwind uwtable
define hidden void @png_free_jmpbuf(ptr noalias noundef %0) local_unnamed_addr #3 {
  %2 = alloca [1 x %struct.__jmp_buf_tag], align 16
  %.not = icmp eq ptr %0, null
  br i1 %.not, label %15, label %3

3:                                                ; preds = %1
  %4 = getelementptr inbounds i8, ptr %0, i64 208
  %5 = load ptr, ptr %4, align 8
  %.not15 = icmp eq ptr %5, null
  br i1 %.not15, label %13, label %6

6:                                                ; preds = %3
  %7 = getelementptr inbounds i8, ptr %0, i64 216
  %8 = load i64, ptr %7, align 8
  %.not16 = icmp eq i64 %8, 0
  %.not17 = icmp eq ptr %5, %0
  %or.cond = or i1 %.not17, %.not16
  br i1 %or.cond, label %13, label %9

9:                                                ; preds = %6
  %10 = call i32 @_setjmp(ptr noundef nonnull %2) #20
  %.not18 = icmp eq i32 %10, 0
  br i1 %.not18, label %11, label %13

11:                                               ; preds = %9
  store ptr %2, ptr %4, align 8
  store i64 0, ptr %7, align 8
  %12 = getelementptr inbounds i8, ptr %0, i64 200
  store ptr @longjmp, ptr %12, align 8
  call void @png_free(ptr noundef nonnull %0, ptr noundef nonnull %5) #17
  br label %13

13:                                               ; preds = %11, %9, %6, %3
  %14 = getelementptr inbounds i8, ptr %0, i64 200
  call void @llvm.memset.p0.i64(ptr noundef nonnull align 8 dereferenceable(24) %14, i8 0, i64 24, i1 false)
  br label %15

15:                                               ; preds = %13, %1
  ret void
}